; Function Attrs: nounwind uwtable
define dso_local noundef zeroext i1 @range_overlaps_multirange_internal(ptr noundef %0, ptr noundef %1, ptr noundef %2) local_unnamed_addr #0 {
  %4 = alloca %struct.RangeBound, align 8
  %5 = alloca %struct.RangeBound, align 8
  %6 = alloca [2 x %struct.RangeBound], align 16
  %7 = alloca i8, align 1
  call void @llvm.lifetime.start.p0(i64 32, ptr nonnull %6) #11
  call void @llvm.lifetime.start.p0(i64 1, ptr nonnull %7) #11
  %8 = tail call signext i8 @range_get_flags(ptr noundef %1) #11
  %9 = and i8 %8, 1
  %.not = icmp eq i8 %9, 0
  br i1 %.not, label %10, label %multirange_bsearch_match.exit

10:                                               ; preds = %3
  %11 = getelementptr inbounds nuw i8, ptr %2, i64 8
  %12 = load i32, ptr %11, align 4
  %13 = icmp eq i32 %12, 0
  br i1 %13, label %multirange_bsearch_match.exit, label %14

14:                                               ; preds = %10
  %15 = getelementptr inbounds nuw i8, ptr %6, i64 16
  call void @range_deserialize(ptr noundef %0, ptr noundef %1, ptr noundef nonnull %6, ptr noundef nonnull %15, ptr noundef nonnull %7) #11
  %16 = load i32, ptr %11, align 4
  %.not30.i = icmp eq i32 %16, 0
  br i1 %.not30.i, label %multirange_bsearch_match.exit, label %.lr.ph.i

.lr.ph.i:                                         ; preds = %14, %multirange_range_overlaps_bsearch_comparison.exit
  %.01729.i = phi i32 [ %.219.i, %multirange_range_overlaps_bsearch_comparison.exit ], [ 0, %14 ]
  %.02028.i = phi i32 [ %.222.i, %multirange_range_overlaps_bsearch_comparison.exit ], [ %16, %14 ]
  call void @llvm.lifetime.start.p0(i64 16, ptr nonnull %4) #11
  call void @llvm.lifetime.start.p0(i64 16, ptr nonnull %5) #11
  %17 = add i32 %.02028.i, %.01729.i
  %18 = lshr i32 %17, 1
  call void @multirange_get_bounds(ptr noundef %0, ptr noundef %2, i32 noundef %18, ptr noundef nonnull %4, ptr noundef nonnull %5)
  %19 = call i32 @range_cmp_bounds(ptr noundef %0, ptr noundef nonnull %15, ptr noundef nonnull %4) #11
  %20 = icmp slt i32 %19, 0
  br i1 %20, label %multirange_range_overlaps_bsearch_comparison.exit, label %21

21:                                               ; preds = %.lr.ph.i
  %22 = call i32 @range_cmp_bounds(ptr noundef %0, ptr noundef nonnull %6, ptr noundef nonnull %5) #11
  %23 = icmp sgt i32 %22, 0
  br i1 %23, label %24, label %.thread.i

24:                                               ; preds = %21
  %25 = add nuw i32 %18, 1
  br label %multirange_range_overlaps_bsearch_comparison.exit

.thread.i:                                        ; preds = %21
  call void @llvm.lifetime.end.p0(i64 16, ptr nonnull %5) #11
  call void @llvm.lifetime.end.p0(i64 16, ptr nonnull %4) #11
  br label %multirange_bsearch_match.exit

multirange_range_overlaps_bsearch_comparison.exit: ; preds = %.lr.ph.i, %24
  %.222.i = phi i32 [ %.02028.i, %24 ], [ %18, %.lr.ph.i ]
  %.219.i = phi i32 [ %25, %24 ], [ %.01729.i, %.lr.ph.i ]
  call void @llvm.lifetime.end.p0(i64 16, ptr nonnull %5) #11
  call void @llvm.lifetime.end.p0(i64 16, ptr nonnull %4) #11
  %26 = icmp ult i32 %.219.i, %.222.i
  br i1 %26, label %.lr.ph.i, label %multirange_bsearch_match.exit, !llvm.loop !33

multirange_bsearch_match.exit:                    ; preds = %multirange_range_overlaps_bsearch_comparison.exit, %.thread.i, %14, %3, %10
  %.0 = phi i1 [ false, %10 ], [ false, %3 ], [ true, %.thread.i ], [ false, %14 ], [ false, %multirange_range_overlaps_bsearch_comparison.exit ]
  call void @llvm.lifetime.end.p0(i64 1, ptr nonnull %7) #11
  call void @llvm.lifetime.end.p0(i64 32, ptr nonnull %6) #11
  ret i1 %.0
}